target datalayout = "e-m:e-p270:32:32-p271:32:32-p272:64:64-i64:64-i128:128-f80:128-n8:16:32:64-S128"
target triple = "x86_64-pc-linux-gnu"

; Function Attrs: inlinehint mustprogress nounwind uwtable
define internal noundef float @"_ZZN19OpenColorIO_v2_5dev11ACES_OUTPUT27Generate_roll_white_d60_opsERNS_10OpRcPtrVecEENK3$_0clEd"(ptr noundef nonnull align 1 dereferenceable(1) %0, double noundef %1) #10 align 2 {
  %3 = alloca ptr, align 8
  %4 = alloca double, align 8
  %5 = alloca double, align 8
  %6 = alloca double, align 8
  %7 = alloca double, align 8
  %8 = alloca double, align 8
  %9 = alloca double, align 8
  %10 = alloca double, align 8
  %11 = alloca double, align 8
  %12 = alloca double, align 8
  %13 = alloca double, align 8
  %14 = alloca double, align 8
  %15 = alloca double, align 8
  %16 = alloca double, align 8
  store ptr %0, ptr %3, align 8, !tbaa !26
  store double %1, ptr %4, align 8, !tbaa !63
  call void @llvm.lifetime.start.p0(i64 8, ptr %5) #3
  store double 9.180000e-01, ptr %5, align 8, !tbaa !63
  call void @llvm.lifetime.start.p0(i64 8, ptr %6) #3
  store double 5.000000e-01, ptr %6, align 8, !tbaa !63
  call void @llvm.lifetime.start.p0(i64 8, ptr %7) #3
  store double -1.000000e+00, ptr %7, align 8, !tbaa !63
  call void @llvm.lifetime.start.p0(i64 8, ptr %8) #3
  store double -5.000000e-01, ptr %8, align 8, !tbaa !63
  call void @llvm.lifetime.start.p0(i64 8, ptr %9) #3
  store double -9.180000e-01, ptr %9, align 8, !tbaa !63
  call void @llvm.lifetime.start.p0(i64 8, ptr %10) #3
  store double -5.000000e-01, ptr %10, align 8, !tbaa !63
  call void @llvm.lifetime.start.p0(i64 8, ptr %11) #3
  store double 5.000000e-01, ptr %11, align 8, !tbaa !63
  call void @llvm.lifetime.start.p0(i64 8, ptr %12) #3
  store double 0x3FB4FDF3B645A1C8, ptr %12, align 8, !tbaa !63
  call void @llvm.lifetime.start.p0(i64 8, ptr %13) #3
  store double 0x3FD5810624DD2F1C, ptr %13, align 8, !tbaa !63
  call void @llvm.lifetime.start.p0(i64 8, ptr %14) #3
  store double -9.180000e-01, ptr %14, align 8, !tbaa !63
  call void @llvm.lifetime.start.p0(i64 8, ptr %15) #3
  %17 = load double, ptr %4, align 8, !tbaa !63
  %18 = fneg double %17
  %19 = fsub double %18, -1.000000e+00
  %20 = fdiv double %19, 5.000000e-01
  store double %20, ptr %15, align 8, !tbaa !63
  call void @llvm.lifetime.start.p0(i64 8, ptr %16) #3
  store double 0.000000e+00, ptr %16, align 8, !tbaa !63
  %21 = load double, ptr %15, align 8, !tbaa !63
  %22 = fcmp olt double %21, 0.000000e+00
  br i1 %22, label %23, label %27

23:                                               ; preds = %2
  %24 = load double, ptr %15, align 8, !tbaa !63
  %25 = call double @llvm.fmuladd.f64(double %24, double 0x3FD5810624DD2F1C, double -9.180000e-01)
  %26 = fneg double %25
  store double %26, ptr %16, align 8, !tbaa !63
  br label %39

27:                                               ; preds = %2
  %28 = load double, ptr %15, align 8, !tbaa !63
  %29 = fcmp ogt double %28, 1.000000e+00
  br i1 %29, label %30, label %32

30:                                               ; preds = %27
  %31 = load double, ptr %4, align 8, !tbaa !63
  store double %31, ptr %16, align 8, !tbaa !63
  br label %38

32:                                               ; preds = %27
  %33 = load double, ptr %15, align 8, !tbaa !63
  %34 = call double @llvm.fmuladd.f64(double %33, double 0x3FB4FDF3B645A1C8, double 0x3FD5810624DD2F1C)
  %35 = load double, ptr %15, align 8, !tbaa !63
  %36 = call double @llvm.fmuladd.f64(double %34, double %35, double -9.180000e-01)
  %37 = fneg double %36
  store double %37, ptr %16, align 8, !tbaa !63
  br label %38

38:                                               ; preds = %32, %30
  br label %39

39:                                               ; preds = %38, %23
  %40 = load double, ptr %16, align 8, !tbaa !63
  %41 = fptrunc double %40 to float
  call void @llvm.lifetime.end.p0(i64 8, ptr %16) #3
  call void @llvm.lifetime.end.p0(i64 8, ptr %15) #3
  call void @llvm.lifetime.end.p0(i64 8, ptr %14) #3
  call void @llvm.lifetime.end.p0(i64 8, ptr %13) #3
  call void @llvm.lifetime.end.p0(i64 8, ptr %12) #3
  call void @llvm.lifetime.end.p0(i64 8, ptr %11) #3
  call void @llvm.lifetime.end.p0(i64 8, ptr %10) #3
  call void @llvm.lifetime.end.p0(i64 8, ptr %9) #3
  call void @llvm.lifetime.end.p0(i64 8, ptr %8) #3
  call void @llvm.lifetime.end.p0(i64 8, ptr %7) #3
  call void @llvm.lifetime.end.p0(i64 8, ptr %6) #3
  call void @llvm.lifetime.end.p0(i64 8, ptr %5) #3
  ret float %41
}

; Function Attrs: mustprogress nounwind uwtable
define linkonce_odr hidden noundef ptr @_ZNKSt9_Any_data9_M_accessEv(ptr noundef nonnull align 8 dereferenceable(16) %0) #6 comdat align 2 {
  %2 = alloca ptr, align 8
  store ptr %0, ptr %2, align 8, !tbaa !170
  %3 = load ptr, ptr %2, align 8
  %4 = getelementptr inbounds [16 x i8], ptr %3, i64 0, i64 0
  ret ptr %4
}

; Function Attrs: mustprogress uwtable
define internal noundef float @"_ZSt13__invoke_implIfRZN19OpenColorIO_v2_5dev11ACES_OUTPUT27Generate_roll_white_d60_opsERNS0_10OpRcPtrVecEE3$_0JdEET_St14__invoke_otherOT0_DpOT1_"(ptr noundef nonnull align 1 dereferenceable(1) %0, ptr noundef nonnull align 8 dereferenceable(8) %1) #4 {
  %3 = alloca ptr, align 8
  %4 = alloca ptr, align 8
  store ptr %0, ptr %3, align 8, !tbaa !26
  store ptr %1, ptr %4, align 8, !tbaa !79
  %5 = load ptr, ptr %3, align 8, !tbaa !26
  %6 = load ptr, ptr %4, align 8, !tbaa !79
  %7 = load double, ptr %6, align 8, !tbaa !63
  %8 = call noundef float @"_ZZN19OpenColorIO_v2_5dev11ACES_OUTPUT27Generate_roll_white_d60_opsERNS_10OpRcPtrVecEENK3$_0clEd"(ptr noundef nonnull align 1 dereferenceable(1) %5, double noundef %7)
  ret float %8
}

; Function Attrs: mustprogress nounwind uwtable
define internal noundef nonnull align 1 dereferenceable(1) ptr @"_ZNKSt9_Any_data9_M_accessIZN19OpenColorIO_v2_5dev11ACES_OUTPUT27Generate_roll_white_d60_opsERNS1_10OpRcPtrVecEE3$_0EERKT_v"(ptr noundef nonnull align 8 dereferenceable(16) %0) #6 align 2 {
  %2 = alloca ptr, align 8
  store ptr %0, ptr %2, align 8, !tbaa !170
  %3 = load ptr, ptr %2, align 8
  %4 = call noundef ptr @_ZNKSt9_Any_data9_M_accessEv(ptr noundef nonnull align 8 dereferenceable(16) %3) #3
  ret ptr %4
}

; Function Attrs: mustprogress uwtable
define internal noundef float @"_ZSt10__invoke_rIfRZN19OpenColorIO_v2_5dev11ACES_OUTPUT27Generate_roll_white_d60_opsERNS0_10OpRcPtrVecEE3$_0JdEENSt9enable_ifIXsr6__and_ISt6__not_ISt7is_voidIT_EESt14is_convertibleINSt15__invoke_resultIT0_JDpT1_EE4typeES9_EEE5valueES9_E4typeEOSE_DpOSF_"(ptr noundef nonnull align 1 dereferenceable(1) %0, ptr noundef nonnull align 8 dereferenceable(8) %1) #4 {
  %3 = alloca ptr, align 8
  %4 = alloca ptr, align 8
  store ptr %0, ptr %3, align 8, !tbaa !26
  store ptr %1, ptr %4, align 8, !tbaa !79
  %5 = load ptr, ptr %3, align 8, !tbaa !26
  %6 = load ptr, ptr %4, align 8, !tbaa !79
  %7 = call noundef float @"_ZSt13__invoke_implIfRZN19OpenColorIO_v2_5dev11ACES_OUTPUT27Generate_roll_white_d60_opsERNS0_10OpRcPtrVecEE3$_0JdEET_St14__invoke_otherOT0_DpOT1_"(ptr noundef nonnull align 1 dereferenceable(1) %5, ptr noundef nonnull align 8 dereferenceable(8) %6)
  ret float %7
}

; Function Attrs: mustprogress nounwind uwtable
define internal noundef ptr @"_ZNSt14_Function_base13_Base_managerIZN19OpenColorIO_v2_5dev11ACES_OUTPUT27Generate_roll_white_d60_opsERNS1_10OpRcPtrVecEE3$_0E14_M_get_pointerERKSt9_Any_data"(ptr noundef nonnull align 8 dereferenceable(16) %0) #6 align 2 {
  %2 = alloca ptr, align 8
  %3 = alloca ptr, align 8
  store ptr %0, ptr %2, align 8, !tbaa !170
  call void @llvm.lifetime.start.p0(i64 8, ptr %3) #3
  %4 = load ptr, ptr %2, align 8, !tbaa !170
  %5 = call noundef nonnull align 1 dereferenceable(1) ptr @"_ZNKSt9_Any_data9_M_accessIZN19OpenColorIO_v2_5dev11ACES_OUTPUT27Generate_roll_white_d60_opsERNS1_10OpRcPtrVecEE3$_0EERKT_v"(ptr noundef nonnull align 8 dereferenceable(16) %4) #3
  store ptr %5, ptr %3, align 8, !tbaa !26
  %6 = load ptr, ptr %3, align 8, !tbaa !26
  call void @llvm.lifetime.end.p0(i64 8, ptr %3) #3
  ret ptr %6
}

; Function Attrs: mustprogress uwtable
define internal noundef float @"_ZNSt17_Function_handlerIFfdEZN19OpenColorIO_v2_5dev11ACES_OUTPUT27Generate_roll_white_d60_opsERNS1_10OpRcPtrVecEE3$_0E9_M_invokeERKSt9_Any_dataOd"(ptr noundef nonnull align 8 dereferenceable(16) %0, ptr noundef nonnull align 8 dereferenceable(8) %1) #4 align 2 {
  %3 = alloca ptr, align 8
  %4 = alloca ptr, align 8
  store ptr %0, ptr %3, align 8, !tbaa !170
  store ptr %1, ptr %4, align 8, !tbaa !79
  %5 = load ptr, ptr %3, align 8, !tbaa !170
  %6 = call noundef ptr @"_ZNSt14_Function_base13_Base_managerIZN19OpenColorIO_v2_5dev11ACES_OUTPUT27Generate_roll_white_d60_opsERNS1_10OpRcPtrVecEE3$_0E14_M_get_pointerERKSt9_Any_data"(ptr noundef nonnull align 8 dereferenceable(16) %5) #3
  %7 = load ptr, ptr %4, align 8, !tbaa !79
  %8 = call noundef float @"_ZSt10__invoke_rIfRZN19OpenColorIO_v2_5dev11ACES_OUTPUT27Generate_roll_white_d60_opsERNS0_10OpRcPtrVecEE3$_0JdEENSt9enable_ifIXsr6__and_ISt6__not_ISt7is_voidIT_EESt14is_convertibleINSt15__invoke_resultIT0_JDpT1_EE4typeES9_EEE5valueES9_E4typeEOSE_DpOSF_"(ptr noundef nonnull align 1 dereferenceable(1) %6, ptr noundef nonnull align 8 dereferenceable(8) %7)
  ret float %8
}