; Function Attrs: mustprogress nofree norecurse nosync nounwind willreturn memory(argmem: read) uwtable
define internal noundef float @"_ZNSt17_Function_handlerIFfdEZN19OpenColorIO_v2_5dev11ACES_OUTPUT27Generate_roll_white_d60_opsERNS1_10OpRcPtrVecEE3$_0E9_M_invokeERKSt9_Any_dataOd"(ptr nonnull readnone align 8 captures(none) %0, ptr noundef nonnull readonly align 8 captures(none) dereferenceable(8) %1) #18 align 2 {
  %.val = load double, ptr %1, align 8, !tbaa !65
  %3 = fsub double 1.000000e+00, %.val
  %4 = fmul double %3, 2.000000e+00
  %5 = fcmp olt double %4, 0.000000e+00
  br i1 %5, label %6, label %9

6:                                                ; preds = %2
  %7 = tail call double @llvm.fmuladd.f64(double %4, double 0x3FD5810624DD2F1C, double -9.180000e-01)
  %8 = fneg double %7
  br label %"_ZSt10__invoke_rIfRZN19OpenColorIO_v2_5dev11ACES_OUTPUT27Generate_roll_white_d60_opsERNS0_10OpRcPtrVecEE3$_0JdEENSt9enable_ifIXsr6__and_ISt6__not_ISt7is_voidIT_EESt14is_convertibleINSt15__invoke_resultIT0_JDpT1_EE4typeES9_EEE5valueES9_E4typeEOSE_DpOSF_.exit"

9:                                                ; preds = %2
  %10 = fcmp ogt double %4, 1.000000e+00
  br i1 %10, label %"_ZSt10__invoke_rIfRZN19OpenColorIO_v2_5dev11ACES_OUTPUT27Generate_roll_white_d60_opsERNS0_10OpRcPtrVecEE3$_0JdEENSt9enable_ifIXsr6__and_ISt6__not_ISt7is_voidIT_EESt14is_convertibleINSt15__invoke_resultIT0_JDpT1_EE4typeES9_EEE5valueES9_E4typeEOSE_DpOSF_.exit", label %11

11:                                               ; preds = %9
  %12 = tail call double @llvm.fmuladd.f64(double %4, double 0x3FB4FDF3B645A1C8, double 0x3FD5810624DD2F1C)
  %13 = tail call double @llvm.fmuladd.f64(double %12, double %4, double -9.180000e-01)
  %14 = fneg double %13
  br label %"_ZSt10__invoke_rIfRZN19OpenColorIO_v2_5dev11ACES_OUTPUT27Generate_roll_white_d60_opsERNS0_10OpRcPtrVecEE3$_0JdEENSt9enable_ifIXsr6__and_ISt6__not_ISt7is_voidIT_EESt14is_convertibleINSt15__invoke_resultIT0_JDpT1_EE4typeES9_EEE5valueES9_E4typeEOSE_DpOSF_.exit"

"_ZSt10__invoke_rIfRZN19OpenColorIO_v2_5dev11ACES_OUTPUT27Generate_roll_white_d60_opsERNS0_10OpRcPtrVecEE3$_0JdEENSt9enable_ifIXsr6__and_ISt6__not_ISt7is_voidIT_EESt14is_convertibleINSt15__invoke_resultIT0_JDpT1_EE4typeES9_EEE5valueES9_E4typeEOSE_DpOSF_.exit": ; preds = %6, %9, %11
  %.0.i.i.i = phi double [ %8, %6 ], [ %14, %11 ], [ %.val, %9 ]
  %15 = fptrunc double %.0.i.i.i to float
  ret float %15
}